target datalayout = "e-m:e-p270:32:32-p271:32:32-p272:64:64-i64:64-i128:128-f80:128-n8:16:32:64-S128"
target triple = "x86_64-unknown-linux-gnu"

%"class.icu_75::(anonymous namespace)::UnicodeSetPointer" = type { ptr }

; Function Attrs: mustprogress nounwind uwtable
define internal void @_ZN6icu_7512_GLOBAL__N_117UnicodeSetPointerD2Ev(ptr noundef nonnull align 8 dereferenceable(8) %this) unnamed_addr #0 align 2 {
entry:
  %this.addr = alloca ptr, align 8
  store ptr %this, ptr %this.addr, align 8
  %this1 = load ptr, ptr %this.addr, align 8
  %p = getelementptr inbounds %"class.icu_75::(anonymous namespace)::UnicodeSetPointer", ptr %this1, i32 0, i32 0
  %0 = load ptr, ptr %p, align 8
  %isnull = icmp eq ptr %0, null
  br i1 %isnull, label %delete.end, label %delete.notnull

delete.notnull:                                   ; preds = %entry
  call void @_ZN6icu_7510UnicodeSetD1Ev(ptr noundef nonnull align 8 dereferenceable(200) %0) #10
  call void @_ZN6icu_757UMemorydlEPv(ptr noundef %0) #10
  br label %delete.end

delete.end:                                       ; preds = %delete.notnull, %entry
  ret void
}