; Function Attrs: mustprogress nounwind uwtable
define internal fastcc void @_ZN6icu_7512_GLOBAL__N_117UnicodeSetPointerD2Ev(ptr %this.0.val) unnamed_addr #0 align 2 {
entry:
  %isnull = icmp eq ptr %this.0.val, null
  br i1 %isnull, label %delete.end, label %delete.notnull

delete.notnull:                                   ; preds = %entry
  tail call void @_ZN6icu_7510UnicodeSetD1Ev(ptr noundef nonnull align 8 dereferenceable(200) %this.0.val) #15
  tail call void @_ZN6icu_757UMemorydlEPv(ptr noundef nonnull %this.0.val) #15
  br label %delete.end

delete.end:                                       ; preds = %delete.notnull, %entry
  ret void
}